(lp0
(dp1
S'pattern'
p2
(lp3
(dp4
S'dp_label'
p5
VNP_AJT
p6
sS'fe'
p7
S'Time'
p8
sS'josa'
p9
(dp10
g9
V\uc5d0
p11
sS'pos'
p12
VJKB
p13
ssa(dp14
g5
VVP_AJT
p15
sg7
S'Place'
p16
sg9
(dp17
g9
V\uc5d0\uc11c
p18
sg12
VJKB
p19
ssa(dp20
g5
VVNP
p21
sg7
S'Event'
p22
sg9
(dp23
g9
V?
p24
sg12
VSF
p25
ssasS'frame'
p26
S'Event'
p27
sa(dp28
g2
(lp29
(dp30
g5
VNP_SBJ
p31
sg7
S'Leader'
p32
sg9
(dp33
g9
V\uc774
p34
sg12
VJKS
p35
ssa(dp36
g5
VNP_AJT
p37
sg7
S'Time'
p38
sg9
(dp39
g9
V\uc5d0
p40
sg12
VJKB
p41
ssa(dp42
g5
VVP_AJT
p43
sg7
S'Place'
p44
sg9
(dp45
g9
V\uc5d0\uc11c
p46
sg12
VJKB
p47
ssa(dp48
g5
VNP_SBJ
p49
sg7
S'Activity'
p50
sg9
(dp51
g9
V\uc740
p52
sg12
VJX
p53
ssasg26
S'Leadership'
p54
sa(dp55
g2
(lp56
(dp57
g5
VVP_MOD
p58
sg7
S'Salient_event'
p59
sS'srl_label'
p60
VARG1
p61
sg9
(dp62
g9
V\u3134
p63
sg12
VETM
p64
ssa(dp65
g5
VVNP
p66
sg7
S'Focal_time'
p67
sg9
(dp68
g9
g24
sg12
VSF
p69
ssasg26
S'Location_in_time'
p70
sa(dp71
g2
(lp72
(dp73
g5
VNP_SBJ
p74
sg7
S'Event'
p75
sg9
(dp76
g9
V\uac00
p77
sg12
VJKS
p78
ssa(dp79
g5
VNP_SBJ
p80
sg7
S'Time'
p81
sg9
(dp82
g9
V\ub294
p83
sg12
VJX
p84
ssasg26
S'Event'
p85
sa(dp86
g2
(lp87
(dp88
g5
VNP_SBJ
p89
sg7
S'Creator'
p90
sg9
(dp91
g9
V\uc774
p92
sg12
VJKS
p93
ssa(dp94
g5
VNP_AJT
p95
sg7
S'Time_of_creation'
p96
sg9
(dp97
g9
V\uc5d0
p98
sg12
VJKB
p99
ssa(dp100
g5
VVNP
p101
sg7
S'Name'
p102
sg9
(dp103
g9
g24
sg12
VSF
p104
ssasg26
S'Artifact'
p105
sa(dp106
g2
(lp107
(dp108
g5
VNP_SBJ
p109
sg7
S'Creator'
p110
sg9
(dp111
g9
V\uc774
p112
sg12
VJKS
p113
ssa(dp114
g5
VNP_AJT
p115
sg7
S'Time'
p116
sg9
(dp117
g9
V\uc5d0
p118
sg12
VJKB
p119
ssa(dp120
g5
VNP_SBJ
p121
sg7
S'Created_entity'
p122
sg9
(dp123
g9
V\uc740
p124
sg12
VJX
p125
ssasg26
S'Creating'
p126
sa(dp127
g2
(lp128
(dp129
g5
VVP_MOD
p130
sg7
S'Use'
p131
sg60
VARG1
p132
sg9
(dp133
g9
V\ub294
p134
sg12
VETM
p135
ssa(dp136
g5
VNP
p137
sg7
S'Type'
p138
sg9
(dp139
sa(dp140
g5
VVNP
p141
sg7
S'Name'
p142
sg9
(dp143
g9
g24
sg12
VSF
p144
ssasg26
S'Artifact'
p145
sa(dp146
g2
(lp147
(dp148
g5
VNP_OBJ
p149
sg7
S'Entity'
p150
sg9
(dp151
g9
V\ub97c
p152
sg12
VJKO
p153
ssa(dp154
g5
VNP_SBJ
p155
sg7
S'Name'
p156
sg9
(dp157
g9
V\ub294
p158
sg12
VJX
p159
ssasg26
S'Referring_by_name'
p160
sa(dp161
g2
(lp162
(dp163
g5
VVP_MOD
p164
sg7
S'Type'
p165
sg60
VARG1
p166
sg9
(dp167
g9
V\ub294
p168
sg12
VETM
p169
ssa(dp170
g5
VVNP
p171
sg7
S'Name'
p172
sg9
(dp173
g9
g24
sg12
VSF
p174
ssasg26
S'Artifact'
p175
sa(dp176
g2
(lp177
(dp178
g5
VVP_MOD
p179
sg7
S'Type'
p180
sg60
VARG0
p181
sg9
(dp182
g9
V\u3134\ub2e4\ub294
p183
sg12
VETM
p184
ssa(dp185
g5
VVNP
p186
sg7
S'Name'
p187
sg9
(dp188
g9
g24
sg12
VSF
p189
ssasg26
S'Artifact'
p190
sa(dp191
g2
(lp192
(dp193
g5
VVP_MOD
p194
sg7
S'Type'
p195
sg60
VARG1
p196
sg9
(dp197
g9
V\u3134
p198
sg12
VETM
p199
ssa(dp200
g5
VVNP
p201
sg7
S'Name'
p202
sg9
(dp203
g9
g24
sg12
VSF
p204
ssasg26
S'Artifact'
p205
sa(dp206
g2
(lp207
(dp208
g5
VVP_MOD
p209
sg7
S'Purpose'
p210
sg60
VARG0
p211
sg9
(dp212
g9
V\ub294
p213
sg12
VETM
p214
ssa(dp215
g5
VVNP
p216
sg7
S'Name'
p217
sg9
(dp218
g9
g24
sg12
VSF
p219
ssasg26
S'Organization'
p220
sa(dp221
g2
(lp222
(dp223
g5
VVP_MOD
p224
sg7
S'Descriptor'
p225
sg60
VARG1
p226
sg9
(dp227
g9
V\u3134
p228
sg12
VETM
p229
ssa(dp230
g5
VVNP
p231
sg7
S'Name'
p232
sg9
(dp233
g9
g24
sg12
VSF
p234
ssasg26
S'Locale'
p235
sa(dp236
g2
(lp237
(dp238
g5
VNP
p239
sg7
S'Type'
p240
sg9
(dp241
sa(dp242
g5
VVNP
p243
sg7
S'Name'
p244
sg9
(dp245
g9
g24
sg12
VSF
p246
ssasg26
S'Artifact'
p247
sa(dp248
g2
(lp249
(dp250
g5
VNP_AJT
p251
sg7
S'Location'
p252
sg9
(dp253
g9
V\uc5d0
p254
sg12
VJKB
p255
ssa(dp256
g5
VNP_AJT
p257
sg7
S'Theme'
p258
sg9
(dp259
g9
V\ub294
p260
sg12
VJX
p261
ssasg26
S'Being_located'
p262
sa(dp263
g2
(lp264
(dp265
g5
VNP_SBJ
p266
sg7
S'Creator'
p267
sg9
(dp268
g9
V\uc774
p269
sg12
VJKS
p270
ssa(dp271
g5
VVP
p272
sg7
S'Use'
p273
sg60
VARG1
p274
sg9
(dp275
sa(dp276
g5
VNP_AJT
p277
sg7
S'Time_of_creation'
p278
sg9
(dp279
g9
V\uc5d0
p280
sg12
VJKB
p281
ssa(dp282
g5
VNP
p283
sg7
S'Type'
p284
sg9
(dp285
sa(dp286
g5
VVNP
p287
sg7
S'Name'
p288
sg9
(dp289
g9
g24
sg12
VSF
p290
ssasg26
S'Artifact'
p291
sa(dp292
g2
(lp293
(dp294
g5
VNP_SBJ
p295
sg7
S'Creator'
p296
sg9
(dp297
g9
V\uc774
p298
sg12
VJKS
p299
ssa(dp300
g5
VVP
p301
sg7
S'Purpose'
p302
sg60
VARG1
p303
sg9
(dp304
sa(dp305
g5
VNP_AJT
p306
sg7
S'Time'
p307
sg9
(dp308
g9
V\uc5d0
p309
sg12
VJKB
p310
ssa(dp311
g5
VNP_SBJ
p312
sg7
S'Created_entity'
p313
sg9
(dp314
g9
V\uc740
p315
sg12
VJX
p316
ssasg26
S'Creating'
p317
sa(dp318
g2
(lp319
(dp320
g5
VNP_AJT
p321
sg7
S'Container_possessor'
p322
sg9
(dp323
g9
V\uc5d0\uc11c
p324
sg12
VJKB
p325
ssa(dp326
g5
VVP
p327
sg7
S'Descriptor'
p328
sg60
VARGM-EXT
p329
sg9
(dp330
g9
V,
p331
sg12
VSP
p332
ssa(dp333
g5
VVP_MOD
p334
sg7
S'Related_event'
p335
sg60
VARG1
p336
sg9
(dp337
g9
V\ub294
p338
sg12
VETM
p339
ssa(dp340
g5
VVNP
p341
sg7
S'Name'
p342
sg9
(dp343
g9
g24
sg12
VSF
p344
ssasg26
S'Locale'
p345
sa(dp346
g2
(lp347
(dp348
g5
VNP_SBJ
p349
sg7
S'Members'
p350
sg9
(dp351
g9
V\uac00
p352
sg12
VJKS
p353
ssa(dp354
g5
VNP_MOD
p355
sg7
S'Container_possessor'
p356
sg9
(dp357
g9
V\uc758
p358
sg12
VJKG
p359
ssa(dp360
g5
VNP
p361
sg7
S'Purpose'
p362
sg9
(dp363
sa(dp364
g5
VVNP
p365
sg7
S'Name'
p366
sg9
(dp367
g9
g24
sg12
VSF
p368
ssasg26
S'Organization'
p369
sa(dp370
g2
(lp371
(dp372
g5
VNP_SBJ
p373
sg7
S'Creator'
p374
sg9
(dp375
g9
V\uac00
p376
sg12
VJKS
p377
ssa(dp378
g5
VNP_AJT
p379
sg7
S'Time'
p380
sg9
(dp381
g9
V\uc5d0
p382
sg12
VJKB
p383
ssa(dp384
g5
VNP
p385
sg7
S'Role'
p386
sg9
(dp387
sa(dp388
g5
VNP_SBJ
p389
sg7
S'Created_entity'
p390
sg9
(dp391
g9
V\ub294
p392
sg12
VJX
p393
ssasg26
S'Creating'
p394
sa(dp395
g2
(lp396
(dp397
g5
VVP_MOD
p398
sg7
S'Descriptor'
p399
sg60
VARG0
p400
sg9
(dp401
g9
V\u3134
p402
sg12
VETM
p403
ssa(dp404
g5
VVNP
p405
sg7
S'Name'
p406
sg9
(dp407
g9
g24
sg12
VSF
p408
ssasg26
S'Organization'
p409
sa(dp410
g2
(lp411
(dp412
g5
VNP_AJT
p413
sg7
S'Time'
p414
sg9
(dp415
g9
V\uc5d0
p416
sg12
VJKB
p417
ssa(dp418
g5
VNP_AJT
p419
sg7
S'Initial_category'
p420
sg9
(dp421
g9
V\uc73c\ub85c\ubd80\ud130
p422
sg12
VJKB
p423
ssa(dp424
g5
VNP_SBJ
p425
sg7
S'Final_category'
p426
sg9
(dp427
g9
V\uc740
p428
sg12
VJX
p429
ssasg26
S'Cause_change'
p430
sa(dp431
g2
(lp432
(dp433
g5
VVP_MOD
p434
sg7
S'Purpose'
p435
sg60
VARG0
p436
sg9
(dp437
g9
V\ub294
p438
sg12
VETM
p439
ssa(dp440
g5
VNP_MOD
p441
sg7
S'Container_possessor'
p442
sg9
(dp443
g9
V\uc758
p444
sg12
VJKG
p445
ssa(dp446
g5
VVNP
p447
sg7
S'Name'
p448
sg9
(dp449
g9
g24
sg12
VSF
p450
ssasg26
S'Organization'
p451
sa(dp452
g2
(lp453
(dp454
g5
VVP_MOD
p455
sg7
S'Type'
p456
sg60
VARG1
p457
sg9
(dp458
g9
V\ub294
p459
sg12
VETM
p460
ssa(dp461
g5
VVNP
p462
sg7
S'Name'
p463
sg9
(dp464
g9
g24
sg12
VSF
p465
ssasg26
S'Artifact'
p466
sa(dp467
g2
(lp468
(dp469
g5
VVP_MOD
p470
sg7
S'Type'
p471
sg60
VARG1
p472
sg9
(dp473
g9
V\u3134
p474
sg12
VETM
p475
ssa(dp476
g5
VVNP
p477
sg7
S'Name'
p478
sg9
(dp479
g9
g24
sg12
VSF
p480
ssasg26
S'Artifact'
p481
sa(dp482
g2
(lp483
(dp484
g5
VNP_AJT
p485
sg7
S'Place'
p486
sg9
(dp487
g9
V\uc5d0\uc11c
p488
sg12
VJKB
p489
ssa(dp490
g5
VNP_AJT
p491
sg7
S'Explanation'
p492
sg9
(dp493
g9
V\ub85c
p494
sg12
VJKB
p495
ssa(dp496
g5
VNP_SBJ
p497
sg7
S'Instrument'
p498
sg9
(dp499
g9
V\ub294
p500
sg12
VJX
p501
ssasg26
S'Using'
p502
sa(dp503
g2
(lp504
(dp505
g5
VNP_AJT
p506
sg7
S'Context'
p507
sg9
(dp508
g9
V\uc5d0\uc11c
p509
sg12
VJKB
p510
ssa(dp511
g5
VVP_MOD
p512
sg7
S'Experience'
p513
sg60
VARG1
p514
sg9
(dp515
g9
V\u3134
p516
sg12
VETM
p517
ssasg26
S'First_experience'
p518
sa(dp519
g2
(lp520
(dp521
g5
VDP
p522
sg7
S'Type'
p523
sg9
(dp524
sa(dp525
g5
VVNP
p526
sg7
S'Name'
p527
sg9
(dp528
g9
g24
sg12
VSF
p529
ssasg26
S'Artifact'
p530
sa(dp531
g2
(lp532
(dp533
g5
VVP_MOD
p534
sg7
S'Type'
p535
sg60
VARG1
p536
sg9
(dp537
g9
V\ub294
p538
sg12
VETM
p539
ssa(dp540
g5
VVNP
p541
sg7
S'Name'
p542
sg9
(dp543
g9
g24
sg12
VSF
p544
ssasg26
S'Artifact'
p545
sa(dp546
g2
(lp547
(dp548
g5
VNP_AJT
p549
sg7
S'Depictive'
p550
sg9
(dp551
g9
V\uc5d0\uc11c
p552
sg12
VJKB
p553
ssa(dp554
g5
VNP_AJT
p555
sg7
S'Creator'
p556
sg9
(dp557
g9
V\uc5d0\uc11c
p558
sg12
VJKB
p559
ssa(dp560
g5
VNP_SBJ
p561
sg7
S'Created_entity'
p562
sg9
(dp563
g9
V\uc740
p564
sg12
VJX
p565
ssasg26
S'Creating'
p566
sa(dp567
g2
(lp568
(dp569
g5
VVP_MOD
p570
sg7
S'Type'
p571
sg60
VARG1
p572
sg9
(dp573
g9
V\u3134
p574
sg12
VETM
p575
ssa(dp576
g5
VVNP
p577
sg7
S'Name}\xec\x9d\xb8\xea\xb0\x80'
p578
sg9
(dp579
g9
g24
sg12
VSF
p580
ssasg26
S'Artifact'
p581
sa(dp582
g2
(lp583
(dp584
g5
VNP_AJT
p585
sg7
S'Time'
p586
sg9
(dp587
g9
V\ub85c
p588
sg12
VJKB
p589
ssa(dp590
g5
VNP_SBJ
p591
sg7
S'Child'
p592
sg9
(dp593
g9
V\ub294
p594
sg12
VJX
p595
ssasg26
S'Being_born'
p596
sa(dp597
g2
(lp598
(dp599
g5
VVP_MOD
p600
sg7
S'Type'
p601
sg60
VARG1
p602
sg9
(dp603
g9
V\ub294
p604
sg12
VETM
p605
ssa(dp606
g5
VVNP
p607
sg7
S'Name'
p608
sg9
(dp609
g9
g24
sg12
VSF
p610
ssasg26
S'Artifact'
p611
sa(dp612
g2
(lp613
(dp614
g5
VNP_OBJ
p615
sg7
S'Entity'
p616
sg9
(dp617
g9
V\ub97c
p618
sg12
VJKO
p619
ssa(dp620
g5
VVNP
p621
sg7
S'Name'
p622
sg9
(dp623
g9
g24
sg12
VSF
p624
ssasg26
S'Referring_by_name'
p625
sa(dp626
g2
(lp627
(dp628
g5
VVP_MOD
p629
sg7
S'Type'
p630
sg60
VARG1
p631
sg9
(dp632
g9
V\u3134
p633
sg12
VETM
p634
ssa(dp635
g5
VVNP
p636
sg7
S'Name'
p637
sg9
(dp638
g9
g24
sg12
VSF
p639
ssasg26
S'Artifact'
p640
sa(dp641
g2
(lp642
(dp643
g5
VVP_MOD
p644
sg7
S'Type'
p645
sg9
(dp646
g9
V\ub294
p647
sg12
VETM
p648
ssa(dp649
g5
VVNP
p650
sg7
S'Name'
p651
sg9
(dp652
g9
g24
sg12
VSF
p653
ssasg26
S'Artifact'
p654
sa(dp655
g2
(lp656
(dp657
g5
VVP_MOD
p658
sg7
S'Context_of_acquaintance'
p659
sg60
VARG0
p660
sg9
(dp661
g9
V\u3134
p662
sg12
VETM
p663
ssa(dp664
g5
VVNP
p665
sg7
S'Person'
p666
sg9
(dp667
g9
g24
sg12
VSF
p668
ssasg26
S'People'
p669
sa(dp670
g2
(lp671
(dp672
g5
VNP_OBJ
p673
sg7
S'Created_entity'
p674
sg9
(dp675
g9
V\ub97c
p676
sg12
VJKO
p677
ssa(dp678
g5
VNP_SBJ
p679
sg7
S'Creator'
p680
sg9
(dp681
g9
V\ub294
p682
sg12
VJX
p683
ssasg26
S'Creating'
p684
sa(dp685
g2
(lp686
(dp687
g5
VVP_MOD
p688
sg7
S'Context_of_acquaintance'
p689
sg60
VARG1
p690
sg9
(dp691
g9
V\u3134
p692
sg12
VETM
p693
ssa(dp694
g5
VVNP
p695
sg7
S'Person'
p696
sg9
(dp697
g9
g24
sg12
VSF
p698
ssasg26
S'People'
p699
sa(dp700
g2
(lp701
(dp702
g5
VNP_AJT
p703
sg7
S'Event_description'
p704
sg9
(dp705
g9
V\ub85c
p706
sg12
VJKB
p707
ssa(dp708
g5
VNP_AJT
p709
sg7
S'Goal'
p710
sg9
(dp711
g9
V\uc5d0
p712
sg12
VJKB
p713
ssa(dp714
g5
VNP_SBJ
p715
sg7
S'Theme'
p716
sg9
(dp717
g9
V\uc740
p718
sg12
VJX
p719
ssasg26
S'Arriving'
p720
sa(dp721
g2
(lp722
(dp723
g5
VVP_MOD
p724
sg7
S'Experience'
p725
sg60
VARG1
p726
sg9
(dp727
g9
V\u3134
p728
sg12
VETM
p729
ssasg26
S'First_experience'
p730
sa(dp731
g2
(lp732
(dp733
g5
VNP
p734
sg7
S'Context_of_acquaintance'
p735
sg9
(dp736
sa(dp737
g5
VVNP
p738
sg7
S'Person'
p739
sg9
(dp740
g9
g24
sg12
VSF
p741
ssasg26
S'People'
p742
sa(dp743
g2
(lp744
(dp745
g5
VNP_MOD
p746
sg7
S'Governed'
p747
sg9
(dp748
g9
V\uc758
p749
sg12
VJKG
p750
ssa(dp751
g5
VNP
p752
sg7
S'Type'
p753
sg9
(dp754
sa(dp755
g5
VVNP
p756
sg7
S'Leader'
p757
sg9
(dp758
g9
g24
sg12
VSF
p759
ssasg26
S'Leadership'
p760
sa(dp761
g2
(lp762
(dp763
g5
VNP
p764
sg7
S'Context_of_acquaintance'
p765
sg9
(dp766
sa(dp767
g5
VVNP
p768
sg7
S'Person'
p769
sg9
(dp770
g9
g24
sg12
VSF
p771
ssasg26
S'People'
p772
sa(dp773
g2
(lp774
(dp775
g5
VNP_MOD
p776
sg7
S'Governed'
p777
sg9
(dp778
g9
V\uc758
p779
sg12
VJKG
p780
ssa(dp781
g5
VNP
p782
sg7
S'Type'
p783
sg9
(dp784
sa(dp785
g5
VVNP
p786
sg7
S'Leader'
p787
sg9
(dp788
g9
g24
sg12
VSF
p789
ssasg26
S'Leadership'
p790
sa(dp791
g2
(lp792
(dp793
g5
VVP_MOD
p794
sg7
S'Type'
p795
sg60
VARG0
p796
sg9
(dp797
g9
V\u3134
p798
sg12
VETM
p799
ssa(dp800
g5
VNP_MOD
p801
sg7
S'Creator'
p802
sg9
(dp803
g9
V\uc758
p804
sg12
VJKG
p805
ssa(dp806
g5
VVNP
p807
sg7
S'Name'
p808
sg9
(dp809
g9
g24
sg12
VSF
p810
ssasg26
S'Artifact'
p811
sa(dp812
g2
(lp813
(dp814
g5
VNP_OBJ
p815
sg7
S'Topic'
p816
sg9
(dp817
g9
V\uc744
p818
sg12
VJKO
p819
ssa(dp820
g5
VNP_MOD
p821
sg7
S'Communicator'
p822
sg9
(dp823
g9
V\uc758
p824
sg12
VJKG
p825
ssa(dp826
g5
VNP_SBJ
p827
sg7
S'Text'
p828
sg9
(dp829
g9
V\uc740
p830
sg12
VJX
p831
ssasg26
S'Topic'
p832
sa(dp833
g2
(lp834
(dp835
g5
VVP_MOD
p836
sg7
S'Purpose'
p837
sg60
VARG0
p838
sg9
(dp839
g9
V\ub294
p840
sg12
VETM
p841
ssa(dp842
g5
VNP_MOD
p843
sg7
S'Container_possessor'
p844
sg9
(dp845
g9
V\uc758
p846
sg12
VJKG
p847
ssa(dp848
g5
VVNP
p849
sg7
S'Name'
p850
sg9
(dp851
g9
g24
sg12
VSF
p852
ssasg26
S'Organization'
p853
sa(dp854
g2
(lp855
(dp856
g5
VVP_MOD
p857
sg7
S'Period_of_existence'
p858
sg60
VARG1
p859
sg9
(dp860
g9
V\ub358
p861
sg12
VETM
p862
ssa(dp863
g5
VNP_MOD
p864
sg7
S'Container_possessor'
p865
sg9
(dp866
g9
V\uc758
p867
sg12
VJKG
p868
ssa(dp869
g5
VNP
p870
sg7
S'Purpose'
p871
sg9
(dp872
sa(dp873
g5
VVNP
p874
sg7
S'Name'
p875
sg9
(dp876
g9
g24
sg12
VSF
p877
ssasg26
S'Organization'
p878
sa(dp879
g2
(lp880
(dp881
g5
VVP_MOD
p882
sg7
S'Purpose'
p883
sg60
VARG0
p884
sg9
(dp885
g9
V\ub294
p886
sg12
VETM
p887
ssa(dp888
g5
VVNP
p889
sg7
S'Name'
p890
sg9
(dp891
g9
g24
sg12
VSF
p892
ssasg26
S'Organization'
p893
sa(dp894
g2
(lp895
(dp896
g5
VNP_CNJ
p897
sg7
S'Members'
p898
sg9
(dp899
g9
V\uacfc
p900
sg12
VJC
p901
ssa(dp902
g5
VNP_SBJ
p903
sg7
S'Members'
p904
sg9
(dp905
g9
V\uac00
p906
sg12
VJKS
p907
ssa(dp908
g5
VNP_AJT
p909
sg7
S'Place'
p910
sg9
(dp911
g9
V\uc5d0
p912
sg12
VJKB
p913
ssa(dp914
g5
VNP
p915
sg7
S'Purpose'
p916
sg9
(dp917
sa(dp918
g5
VVNP
p919
sg7
S'Name'
p920
sg9
(dp921
g9
g24
sg12
VSF
p922
ssasg26
S'Organization'
p923
sa(dp924
g2
(lp925
(dp926
g5
VNP_CNJ
p927
sg7
S'Creator'
p928
sg9
(dp929
g9
V\uacfc
p930
sg12
VJC
p931
ssa(dp932
g5
VNP_SBJ
p933
sg7
S'Creator'
p934
sg9
(dp935
g9
V\uac00
p936
sg12
VJKS
p937
ssa(dp938
g5
VNP_AJT
p939
sg7
S'Time'
p940
sg9
(dp941
g9
V\uc5d0
p942
sg12
VJKB
p943
ssa(dp944
g5
VNP_AJT
p945
sg7
S'Place'
p946
sg9
(dp947
g9
V\uc5d0
p948
sg12
VJKB
p949
ssa(dp950
g5
VNP
p951
sg7
S'Purpose'
p952
sg9
(dp953
sa(dp954
g5
VNP_SBJ
p955
sg7
S'Created_entity'
p956
sg9
(dp957
g9
V\ub294
p958
sg12
VJX
p959
ssasg26
S'Creating'
p960
sa(dp961
g2
(lp962
(dp963
g5
VVP_MOD
p964
sg7
S'Purpose'
p965
sg60
VARG0
p966
sg9
(dp967
g9
V\ub294
p968
sg12
VETM
p969
ssa(dp970
g5
VNP_MOD
p971
sg7
S'Container_possessor'
p972
sg9
(dp973
g9
V\uc758
p974
sg12
VJKG
p975
ssa(dp976
g5
VVNP
p977
sg7
S'Name'
p978
sg9
(dp979
g9
g24
sg12
VSF
p980
ssasg26
S'Organization'
p981
sa(dp982
g2
(lp983
(dp984
g5
VVP_MOD
p985
sg7
S'Purpose'
p986
sg60
VARG1
p987
sg9
(dp988
g9
V\ub294
p989
sg12
VETM
p990
ssa(dp991
g5
VNP_MOD
p992
sg7
S'Container_possessor'
p993
sg9
(dp994
g9
V\uc758
p995
sg12
VJKG
p996
ssa(dp997
g5
VVNP
p998
sg7
S'Name'
p999
sg9
(dp1000
g9
g24
sg12
VSF
p1001
ssasg26
S'Organization'
p1002
sa(dp1003
g2
(lp1004
(dp1005
g5
VNP_SBJ
p1006
sg7
S'Members'
p1007
sg9
(dp1008
g9
V\uc774
p1009
sg12
VJKS
p1010
ssa(dp1011
g5
VNP_MOD
p1012
sg7
S'Descriptor'
p1013
sg9
(dp1014
g9
V\uc758
p1015
sg12
VJKG
p1016
ssa(dp1017
g5
VNP
p1018
sg7
S'Purpose'
p1019
sg9
(dp1020
sa(dp1021
g5
VVNP
p1022
sg7
S'Name'
p1023
sg9
(dp1024
g9
g24
sg12
VSF
p1025
ssasg26
S'Organization'
p1026
sa(dp1027
g2
(lp1028
(dp1029
g5
VNP_SBJ
p1030
sg7
S'Creator'
p1031
sg9
(dp1032
g9
V\uc774
p1033
sg12
VJKS
p1034
ssa(dp1035
g5
VNP
p1036
sg7
S'Time'
p1037
sg9
(dp1038
sa(dp1039
g5
VNP
p1040
sg7
S'Purpose'
p1041
sg9
(dp1042
sa(dp1043
g5
VNP_SBJ
p1044
sg7
S'Created_entity'
p1045
sg9
(dp1046
g9
V\ub294
p1047
sg12
VJX
p1048
ssasg26
S'Creating'
p1049
sa(dp1050
g2
(lp1051
(dp1052
g5
VNP
p1053
sg7
S'Container_possessor'
p1054
sg9
(dp1055
sa(dp1056
g5
VNP_MOD
p1057
sg7
S'Descriptor'
p1058
sg9
(dp1059
g9
V\uc758
p1060
sg12
VJKG
p1061
ssa(dp1062
g5
VNP
p1063
sg7
S'Purpose'
p1064
sg9
(dp1065
sa(dp1066
g5
VVNP
p1067
sg7
S'Name'
p1068
sg9
(dp1069
g9
g24
sg12
VSF
p1070
ssasg26
S'Organization'
p1071
sa(dp1072
g2
(lp1073
(dp1074
g5
VNP_MOD
p1075
sg7
S'Container_possessor'
p1076
sg9
(dp1077
g9
V\uc758
p1078
sg12
VJKG
p1079
ssa(dp1080
g5
VNP
p1081
sg7
S'Purpose'
p1082
sg9
(dp1083
sa(dp1084
g5
VVNP
p1085
sg7
S'Name'
p1086
sg9
(dp1087
g9
g24
sg12
VSF
p1088
ssasg26
S'Organization'
p1089
sa(dp1090
g2
(lp1091
(dp1092
g5
VNP_MOD
p1093
sg7
S'Container_possessor'
p1094
sg9
(dp1095
g9
V\uc758
p1096
sg12
VJKG
p1097
ssa(dp1098
g5
VNP
p1099
sg7
S'Purpose'
p1100
sg9
(dp1101
sa(dp1102
g5
VVNP
p1103
sg7
S'Name'
p1104
sg9
(dp1105
g9
g24
sg12
VSF
p1106
ssasg26
S'Organization'
p1107
sa(dp1108
g2
(lp1109
(dp1110
g5
VVP
p1111
sg7
S'Purpose'
p1112
sg60
VARG1
p1113
sg9
(dp1114
sa(dp1115
g5
VVP_MOD
p1116
sg7
S'Members'
p1117
sg60
VARG1
p1118
sg9
(dp1119
g9
V\u3134
p1120
sg12
VETM
p1121
ssa(dp1122
g5
VVNP
p1123
sg7
S'Name'
p1124
sg9
(dp1125
g9
g24
sg12
VSF
p1126
ssasg26
S'Organization'
p1127
sa(dp1128
g2
(lp1129
(dp1130
g5
VVP_MOD
p1131
sg7
S'Descriptor'
p1132
sg60
VARG1
p1133
sg9
(dp1134
g9
V\u3134
p1135
sg12
VETM
p1136
ssa(dp1137
g5
VNP
p1138
sg7
S'Purpose'
p1139
sg9
(dp1140
sa(dp1141
g5
VVNP
p1142
sg7
S'Name'
p1143
sg9
(dp1144
g9
g24
sg12
VSF
p1145
ssasg26
S'Organization'
p1146
sa(dp1147
g2
(lp1148
(dp1149
g5
VNP_AJT
p1150
sg7
S'Time'
p1151
sg9
(dp1152
g9
V\uc5d0
p1153
sg12
VJKB
p1154
ssa(dp1155
g5
VNP
p1156
sg7
S'Purpose'
p1157
sg9
(dp1158
sa(dp1159
g5
VNP_SBJ
p1160
sg7
S'Created_entity'
p1161
sg9
(dp1162
g9
V\ub294
p1163
sg12
VJX
p1164
ssasg26
S'Creating'
p1165
sa(dp1166
g2
(lp1167
(dp1168
g5
VVP_MOD
p1169
sg7
S'Type'
p1170
sg9
(dp1171
g9
V\u3134
p1172
sg12
VETM
p1173
ssa(dp1174
g5
VVNP
p1175
sg7
S'Name'
p1176
sg9
(dp1177
g9
g24
sg12
VSF
p1178
ssasg26
S'Artifact'
p1179
sa(dp1180
g2
(lp1181
(dp1182
g5
VNP_AJT
p1183
sg7
S'Time'
p1184
sg9
(dp1185
g9
V\uc5d0
p1186
sg12
VJKB
p1187
ssa(dp1188
g5
VNP_CNJ
p1189
sg7
S'Final_value'
p1190
sg9
(dp1191
g9
V\uacfc
p1192
sg12
VJC
p1193
ssa(dp1194
g5
VNP_SBJ
p1195
sg7
S'Final_value'
p1196
sg9
(dp1197
g9
V\uc774
p1198
sg12
VJKS
p1199
ssa(dp1200
g5
VNP_SBJ
p1201
sg7
S'Cause'
p1202
sg9
(dp1203
g9
V\ub294
p1204
sg12
VJX
p1205
ssasg26
S'Cause_change'
p1206
sa(dp1207
g2
(lp1208
(dp1209
g5
VNP_MOD
p1210
sg7
S'Descriptor'
p1211
sg9
(dp1212
g9
V\uc758
p1213
sg12
VJKG
p1214
ssa(dp1215
g5
VNP
p1216
sg7
S'Type'
p1217
sg9
(dp1218
sa(dp1219
g5
VVNP
p1220
sg7
S'Name'
p1221
sg9
(dp1222
g9
g24
sg12
VSF
p1223
ssasg26
S'Artifact'
p1224
sa(dp1225
g2
(lp1226
(dp1227
g5
VVP_MOD
p1228
sg7
S'Salient_event'
p1229
sg60
VARG1
p1230
sg9
(dp1231
g9
V\u3134
p1232
sg12
VETM
p1233
ssa(dp1234
g5
VVNP
p1235
sg7
S'Focal_time'
p1236
sg9
(dp1237
g9
g24
sg12
VSF
p1238
ssasg26
S'Location_in_time'
p1239
sa(dp1240
g2
(lp1241
(dp1242
g5
VNP_SBJ
p1243
sg7
S'Event'
p1244
sg9
(dp1245
g9
V\uac00
p1246
sg12
VJKS
p1247
ssa(dp1248
g5
VNP_SBJ
p1249
sg7
S'Time'
p1250
sg9
(dp1251
g9
V\ub294
p1252
sg12
VJX
p1253
ssasg26
S'Event'
p1254
sa(dp1255
g2
(lp1256
(dp1257
g5
VNP_SBJ
p1258
sg7
S'Creator'
p1259
sg9
(dp1260
g9
V\uc774
p1261
sg12
VJKS
p1262
ssa(dp1263
g5
VNP_AJT
p1264
sg7
S'Time_of_creation'
p1265
sg9
(dp1266
g9
V\uc5d0
p1267
sg12
VJKB
p1268
ssa(dp1269
g5
VNP_MOD
p1270
sg7
S'Type'
p1271
sg9
(dp1272
g9
V\uc758
p1273
sg12
VJKG
p1274
ssa(dp1275
g5
VVNP
p1276
sg7
S'Name'
p1277
sg9
(dp1278
g9
g24
sg12
VSF
p1279
ssasg26
S'Artifact'
p1280
sa(dp1281
g2
(lp1282
(dp1283
g5
VNP_SBJ
p1284
sg7
S'Creator'
p1285
sg9
(dp1286
g9
V\uc774
p1287
sg12
VJKS
p1288
ssa(dp1289
g5
VNP_AJT
p1290
sg7
S'Time'
p1291
sg9
(dp1292
g9
V\uc5d0
p1293
sg12
VJKB
p1294
ssa(dp1295
g5
VNP_SBJ
p1296
sg7
S'Created_entity'
p1297
sg9
(dp1298
g9
V\uc740
p1299
sg12
VJX
p1300
ssasg26
S'Creating'
p1301
sa(dp1302
g2
(lp1303
(dp1304
g5
VNP_AJT
p1305
sg7
S'Name'
p1306
sg9
(dp1307
g9
V\ub3c4
p1308
sg12
VJX
p1309
ssa(dp1310
g5
VNP_SBJ
p1311
sg7
S'Entity'
p1312
sg9
(dp1313
g9
V\uc740
p1314
sg12
VJX
p1315
ssasg26
S'Referring_by_name'
p1316
sa(dp1317
g2
(lp1318
(dp1319
g5
VVP_MOD
p1320
sg7
S'Purpose'
p1321
sg60
VARG0
p1322
sg9
(dp1323
g9
V\ub294
p1324
sg12
VETM
p1325
ssa(dp1326
g5
VVNP
p1327
sg7
S'Name'
p1328
sg9
(dp1329
g9
g24
sg12
VSF
p1330
ssasg26
S'Organization'
p1331
sa(dp1332
g2
(lp1333
(dp1334
g5
VVP_MOD
p1335
sg7
S'Related_event'
p1336
sg60
VARG1
p1337
sg9
(dp1338
g9
V\u3134
p1339
sg12
VETM
p1340
ssa(dp1341
g5
VVNP
p1342
sg7
S'Name'
p1343
sg9
(dp1344
g9
g24
sg12
VSF
p1345
ssasg26
S'Locale'
p1346
sa(dp1347
g2
(lp1348
(dp1349
g5
VNP_SBJ
p1350
sg7
S'Event'
p1351
sg9
(dp1352
g9
V\uc774
p1353
sg12
VJKS
p1354
ssa(dp1355
g5
VNP_SBJ
p1356
sg7
S'Place'
p1357
sg9
(dp1358
g9
V\ub294
p1359
sg12
VJX
p1360
ssasg26
S'Event'
p1361
sa(dp1362
g2
(lp1363
(dp1364
g5
VVP_MOD
p1365
sg7
S'Purpose'
p1366
sg60
VARG1
p1367
sg9
(dp1368
g9
V\ub294
p1369
sg12
VETM
p1370
ssa(dp1371
g5
VNP_MOD
p1372
sg7
S'Container_possessor'
p1373
sg9
(dp1374
g9
V\uc758
p1375
sg12
VJKG
p1376
ssa(dp1377
g5
VVNP
p1378
sg7
S'Name'
p1379
sg9
(dp1380
g9
g24
sg12
VSF
p1381
ssasg26
S'Organization'
p1382
sa(dp1383
g2
(lp1384
(dp1385
g5
VVP_MOD
p1386
sg7
S'Use'
p1387
sg60
VARG1
p1388
sg9
(dp1389
g9
V\ub294
p1390
sg12
VETM
p1391
ssa(dp1392
g5
VVNP
p1393
sg7
S'Name'
p1394
sg9
(dp1395
g9
g24
sg12
VSF
p1396
ssasg26
S'Artifact'
p1397
sa(dp1398
g2
(lp1399
(dp1400
g5
VNP_AJT
p1401
sg7
S'Purpose'
p1402
sg9
(dp1403
g9
V\uc5d0\uc11c
p1404
sg12
VJKB
p1405
ssa(dp1406
g5
VNP_SBJ
p1407
sg7
S'Instrument'
p1408
sg9
(dp1409
g9
V\ub294
p1410
sg12
VJX
p1411
ssasg26
S'Using'
p1412
sa(dp1413
g2
(lp1414
(dp1415
g5
VVP
p1416
sg7
S'Purpose'
p1417
sg60
VARG1
p1418
sg9
(dp1419
sa(dp1420
g5
VNP_SBJ
p1421
sg7
S'Creator'
p1422
sg9
(dp1423
g9
V\uc774
p1424
sg12
VJKS
p1425
ssa(dp1426
g5
VVNP
p1427
sg7
S'Name'
p1428
sg9
(dp1429
g9
g24
sg12
VSF
p1430
ssasg26
S'Artifact'
p1431
sa(dp1432
g2
(lp1433
(dp1434
g5
VVP
p1435
sg7
S'Explanation'
p1436
sg60
VARG1
p1437
sg9
(dp1438
sa(dp1439
g5
VNP_SBJ
p1440
sg7
S'Agent'
p1441
sg9
(dp1442
g9
V\uc774
p1443
sg12
VJKS
p1444
ssa(dp1445
g5
VNP_SBJ
p1446
sg7
S'Theme'
p1447
sg9
(dp1448
g9
V\ub294
p1449
sg12
VJX
p1450
ssasg26
S'Cause_motion'
p1451
sa(dp1452
g2
(lp1453
(dp1454
g5
VVP_MOD
p1455
sg7
S'Salient_event'
p1456
sg60
VARG1
p1457
sg9
(dp1458
g9
V\u3134
p1459
sg12
VETM
p1460
ssa(dp1461
g5
VNP
p1462
sg7
S'Focal_time'
p1463
sg9
(dp1464
sasg26
S'Location_in_time'
p1465
sa(dp1466
g2
(lp1467
(dp1468
g5
VNP_SBJ
p1469
sg7
S'Theme'
p1470
sg9
(dp1471
g9
V\uc774
p1472
sg12
VJKS
p1473
ssa(dp1474
g5
VNP_AJT
p1475
sg7
S'Goal'
p1476
sg9
(dp1477
g9
V\uc5d0
p1478
sg12
VJKB
p1479
ssa(dp1480
g5
VAP
p1481
sg7
S'Event_description'
p1482
sg9
(dp1483
sa(dp1484
g5
VNP_SBJ
p1485
sg7
S'Time'
p1486
sg9
(dp1487
g9
V\ub294
p1488
sg12
VJX
p1489
ssasg26
S'Arriving'
p1490
sa(dp1491
g2
(lp1492
(dp1493
g5
VVP_MOD
p1494
sg7
S'Context_of_acquaintance'
p1495
sg60
VARG0
p1496
sg9
(dp1497
g9
V\u3134
p1498
sg12
VETM
p1499
ssa(dp1500
g5
VVNP
p1501
sg7
S'Person'
p1502
sg9
(dp1503
g9
g24
sg12
VSF
p1504
ssasg26
S'People'
p1505
sa(dp1506
g2
(lp1507
(dp1508
g5
VNP_OBJ
p1509
sg7
S'Created_entity'
p1510
sg9
(dp1511
g9
V\ub97c
p1512
sg12
VJKO
p1513
ssa(dp1514
g5
VNP_SBJ
p1515
sg7
S'Creator'
p1516
sg9
(dp1517
g9
V\uc740
p1518
sg12
VJX
p1519
ssasg26
S'Creating'
p1520
sa(dp1521
g2
(lp1522
(dp1523
g5
VVP_MOD
p1524
sg7
S'Type'
p1525
sg60
VARG1
p1526
sg9
(dp1527
g9
V\ub294
p1528
sg12
VETM
p1529
ssa(dp1530
g5
VNP
p1531
sg7
S'Type'
p1532
sg9
(dp1533
sa(dp1534
g5
VVNP
p1535
sg7
S'Name'
p1536
sg9
(dp1537
g9
g24
sg12
VSF
p1538
ssasg26
S'Artifact'
p1539
sa(dp1540
g2
(lp1541
(dp1542
g5
VNP_MOD
p1543
sg7
S'Origin'
p1544
sg9
(dp1545
g9
V\uc758
p1546
sg12
VJKG
p1547
ssa(dp1548
g5
VNP
p1549
sg7
S'Context_of_acquaintance'
p1550
sg9
(dp1551
sa(dp1552
g5
VVNP
p1553
sg7
S'Person'
p1554
sg9
(dp1555
g9
g24
sg12
VSF
p1556
ssasg26
S'People'
p1557
sa(dp1558
g2
(lp1559
(dp1560
g5
VNP_MOD
p1561
sg7
S'Governed'
p1562
sg9
(dp1563
g9
V\uc758
p1564
sg12
VJKG
p1565
ssa(dp1566
g5
VNP
p1567
sg7
S'Type'
p1568
sg9
(dp1569
sa(dp1570
g5
VVNP
p1571
sg7
S'Leader'
p1572
sg9
(dp1573
g9
g24
sg12
VSF
p1574
ssasg26
S'Leadership'
p1575
sa(dp1576
g2
(lp1577
(dp1578
g5
VNP_AJT
p1579
sg7
S'Place'
p1580
sg9
(dp1581
g9
V\uc5d0
p1582
sg12
VJKB
p1583
ssa(dp1584
g5
VNP
p1585
sg7
S'Container_possessor'
p1586
sg9
(dp1587
sa(dp1588
g5
VNP_MOD
p1589
sg7
S'Descriptor'
p1590
sg9
(dp1591
g9
V\uc758
p1592
sg12
VJKG
p1593
ssa(dp1594
g5
VVNP
p1595
sg7
S'Name'
p1596
sg9
(dp1597
g9
g24
sg12
VSF
p1598
ssasg26
S'Organization'
p1599
sa(dp1600
g2
(lp1601
(dp1602
g5
VNP_AJT
p1603
sg7
S'Time'
p1604
sg9
(dp1605
g9
V\uc5d0
p1606
sg12
VJKB
p1607
ssa(dp1608
g5
VNP_AJT
p1609
sg7
S'Place'
p1610
sg9
(dp1611
g9
V\uc5d0
p1612
sg12
VJKB
p1613
ssa(dp1614
g5
VNP
p1615
sg7
S'Place'
p1616
sg9
(dp1617
sa(dp1618
g5
VNP_SBJ
p1619
sg7
S'Purpose'
p1620
sg9
(dp1621
g9
V\uc740
p1622
sg12
VJX
p1623
ssasg26
S'Creating'
p1624
sa(dp1625
g2
(lp1626
(dp1627
g5
VNP
p1628
sg7
S'Context'
p1629
sg9
(dp1630
sa(dp1631
g5
VNP_SBJ
p1632
sg7
S'Experience'
p1633
sg9
(dp1634
g9
V\uc740
p1635
sg12
VJX
p1636
ssasg26
S'First_experience'
p1637
sa(dp1638
g2
(lp1639
(dp1640
g5
VNP_SBJ
p1641
sg7
S'Creator'
p1642
sg9
(dp1643
g9
V\uc774
p1644
sg12
VJKS
p1645
ssa(dp1646
g5
VVNP
p1647
sg7
S'Name'
p1648
sg9
(dp1649
g9
g24
sg12
VSF
p1650
ssasg26
S'Artifact'
p1651
sa(dp1652
g2
(lp1653
(dp1654
g5
VNP_MOD
p1655
sg7
S'Origin'
p1656
sg9
(dp1657
g9
V\uc758
p1658
sg12
VJKG
p1659
ssa(dp1660
g5
VNP_SBJ
p1661
sg7
S'Person'
p1662
sg9
(dp1663
g9
V\uc774
p1664
sg12
VJKS
p1665
ssasg26
S'People'
p1666
sa(dp1667
g2
(lp1668
(dp1669
g5
VNP_SBJ
p1670
sg7
S'Creator'
p1671
sg9
(dp1672
g9
V\uc774
p1673
sg12
VJKS
p1674
ssa(dp1675
g5
VNP_SBJ
p1676
sg7
S'Created_entity'
p1677
sg9
(dp1678
g9
V\uc740
p1679
sg12
VJX
p1680
ssasg26
S'Creating'
p1681
sa(dp1682
g2
(lp1683
(dp1684
g5
VNP_SBJ
p1685
sg7
S'Creator'
p1686
sg9
(dp1687
g9
V\uac00
p1688
sg12
VJKS
p1689
ssa(dp1690
g5
VNP_AJT
p1691
sg7
S'Time_of_creation'
p1692
sg9
(dp1693
g9
V\uc5d0
p1694
sg12
VJKB
p1695
ssa(dp1696
g5
VVP_MOD
p1697
sg7
S'Type'
p1698
sg60
VARG1
p1699
sg9
(dp1700
g9
V\u3134
p1701
sg12
VETM
p1702
ssa(dp1703
g5
VVNP
p1704
sg7
S'Name'
p1705
sg9
(dp1706
g9
g24
sg12
VSF
p1707
ssasg26
S'Artifact'
p1708
sa(dp1709
g2
(lp1710
(dp1711
g5
VNP_MOD
p1712
sg7
S'Origin'
p1713
sg9
(dp1714
g9
V\uc758
p1715
sg12
VJKG
p1716
ssa(dp1717
g5
VNP_SBJ
p1718
sg7
S'Person'
p1719
sg9
(dp1720
g9
V\uac00
p1721
sg12
VJKS
p1722
ssasg26
S'People'
p1723
sa(dp1724
g2
(lp1725
(dp1726
g5
VNP_SBJ
p1727
sg7
S'Creator'
p1728
sg9
(dp1729
g9
V\uac00
p1730
sg12
VJKS
p1731
ssa(dp1732
g5
VNP_AJT
p1733
sg7
S'Time'
p1734
sg9
(dp1735
g9
V\uc5d0
p1736
sg12
VJKB
p1737
ssa(dp1738
g5
VNP_AJT
p1739
sg7
S'Means'
p1740
sg9
(dp1741
g9
V\uc73c\ub85c
p1742
sg12
VJKB
p1743
ssa(dp1744
g5
VNP_SBJ
p1745
sg7
S'Created_entity'
p1746
sg9
(dp1747
g9
V\uc740
p1748
sg12
VJX
p1749
ssasg26
S'Creating'
p1750
sa(dp1751
g2
(lp1752
(dp1753
g5
VNP_MOD
p1754
sg7
S'Container_possessor'
p1755
sg9
(dp1756
g9
V\uc758
p1757
sg12
VJKG
p1758
ssa(dp1759
g5
VVNP
p1760
sg7
S'Name'
p1761
sg9
(dp1762
g9
g24
sg12
VSF
p1763
ssasg26
S'Locale'
p1764
sa(dp1765
g2
(lp1766
(dp1767
g5
VVP_MOD
p1768
sg7
S'Descriptor'
p1769
sg60
VARG1
p1770
sg9
(dp1771
g9
V\ub294
p1772
sg12
VETM
p1773
ssa(dp1774
g5
VNP_MOD
p1775
sg7
S'Container_possessor'
p1776
sg9
(dp1777
g9
V\uc758
p1778
sg12
VJKG
p1779
ssa(dp1780
g5
VVNP
p1781
sg7
S'Name'
p1782
sg9
(dp1783
g9
g24
sg12
VSF
p1784
ssasg26
S'Locale'
p1785
sa(dp1786
g2
(lp1787
(dp1788
g5
VNP_OBJ
p1789
sg7
S'Entity'
p1790
sg9
(dp1791
g9
V\uc744
p1792
sg12
VJKO
p1793
ssa(dp1794
g5
VNP_SBJ
p1795
sg7
S'Entity'
p1796
sg9
(dp1797
g9
V\uc740
p1798
sg12
VJX
p1799
ssa(dp1800
g5
VVNP
p1801
sg7
S'Name'
p1802
sg9
(dp1803
g9
g24
sg12
VSF
p1804
ssasg26
S'Referring_by_name'
p1805
sa(dp1806
g2
(lp1807
(dp1808
g5
VNP_MOD
p1809
sg7
S'Container_possessor'
p1810
sg9
(dp1811
g9
V\uc758
p1812
sg12
VJKG
p1813
ssa(dp1814
g5
VVNP
p1815
sg7
S'Name'
p1816
sg9
(dp1817
g9
g24
sg12
VSF
p1818
ssasg26
S'Locale'
p1819
sa(dp1820
g2
(lp1821
(dp1822
g5
VNP_MOD
p1823
sg7
S'Members'
p1824
sg9
(dp1825
g9
V\uc758
p1826
sg12
VJKG
p1827
ssa(dp1828
g5
VVNP
p1829
sg7
S'Name'
p1830
sg9
(dp1831
g9
g24
sg12
VSF
p1832
ssasg26
S'Organization'
p1833
sa(dp1834
g2
(lp1835
(dp1836
g5
VNP_AJT
p1837
sg7
S'Time'
p1838
sg9
(dp1839
sa(dp1840
g5
VVP
p1841
sg7
S'Cause'
p1842
sg60
VARG1
p1843
sg9
(dp1844
sa(dp1845
g5
VNP_MOD
p1846
sg7
S'Entity'
p1847
sg9
(dp1848
g9
V\uc758
p1849
sg12
VJKG
p1850
ssa(dp1851
g5
VNP_SBJ
p1852
sg7
S'Final_value'
p1853
sg9
(dp1854
g9
V\ub294
p1855
sg12
VJX
p1856
ssasg26
S'Cause_change'
p1857
sa(dp1858
g2
(lp1859
(dp1860
g5
VVP_MOD
p1861
sg7
S'Place'
p1862
sg60
VARG1
p1863
sg9
(dp1864
g9
V\u3134
p1865
sg12
VETM
p1866
ssa(dp1867
g5
VNP_MOD
p1868
sg7
S'Container_possessor'
p1869
sg9
(dp1870
g9
V\uc758
p1871
sg12
VJKG
p1872
ssa(dp1873
g5
VVNP
p1874
sg7
S'Name'
p1875
sg9
(dp1876
g9
g24
sg12
VSF
p1877
ssasg26
S'Organization'
p1878
sa(dp1879
g2
(lp1880
(dp1881
g5
VNP_AJT
p1882
sg7
S'Time'
p1883
sg9
(dp1884
g9
V\uc5d0
p1885
sg12
VJKB
p1886
ssa(dp1887
g5
VNP_AJT
p1888
sg7
S'Place'
p1889
sg9
(dp1890
g9
V\uc5d0
p1891
sg12
VJKB
p1892
ssa(dp1893
g5
VNP_MOD
p1894
sg7
S'Place'
p1895
sg9
(dp1896
g9
V\uc758
p1897
sg12
VJKG
p1898
ssa(dp1899
g5
VNP_SBJ
p1900
sg7
S'Purpose'
p1901
sg9
(dp1902
g9
V\uc740
p1903
sg12
VJX
p1904
ssasg26
S'Creating'
p1905
sa(dp1906
g2
(lp1907
(dp1908
g5
VNP_MOD
p1909
sg7
S'Container_possessor'
p1910
sg9
(dp1911
g9
V\uc758
p1912
sg12
VJKG
p1913
ssa(dp1914
g5
VNP
p1915
sg7
S'Purpose'
p1916
sg9
(dp1917
sa(dp1918
g5
VVNP
p1919
sg7
S'Name'
p1920
sg9
(dp1921
g9
g24
sg12
VSF
p1922
ssasg26
S'Organization'
p1923
sa(dp1924
g2
(lp1925
(dp1926
g5
VNP_MOD
p1927
sg7
S'Type'
p1928
sg9
(dp1929
g9
V\uc758
p1930
sg12
VJKG
p1931
ssa(dp1932
g5
VVNP
p1933
sg7
S'Name'
p1934
sg9
(dp1935
g9
g24
sg12
VSF
p1936
ssasg26
S'Artifact'
p1937
sa(dp1938
g2
(lp1939
(dp1940
g5
VVP_MOD
p1941
sg7
S'Members'
p1942
sg60
VARG1
p1943
sg9
(dp1944
g9
V\u3134
p1945
sg12
VETM
p1946
ssa(dp1947
g5
VNP_MOD
p1948
sg7
S'Container_possessor'
p1949
sg9
(dp1950
g9
V\uc758
p1951
sg12
VJKG
p1952
ssa(dp1953
g5
VNP
p1954
sg7
S'Purpose'
p1955
sg9
(dp1956
sa(dp1957
g5
VVNP
p1958
sg7
S'Name'
p1959
sg9
(dp1960
g9
g24
sg12
VSF
p1961
ssasg26
S'Organization'
p1962
sa(dp1963
g2
(lp1964
(dp1965
g5
VNP_SBJ
p1966
sg7
S'Member'
p1967
sg9
(dp1968
g9
V\uac00
p1969
sg12
VJKS
p1970
ssa(dp1971
g5
VNP_SBJ
p1972
sg7
S'Group'
p1973
sg9
(dp1974
g9
V\uc740
p1975
sg12
VJX
p1976
ssasg26
S'Membership'
p1977
sa(dp1978
g2
(lp1979
(dp1980
g5
VVP_MOD
p1981
sg7
S'Salient_event'
p1982
sg60
VARG1
p1983
sg9
(dp1984
g9
V\u3134
p1985
sg12
VETM
p1986
ssa(dp1987
g5
VVNP
p1988
sg7
S'Focal_time'
p1989
sg9
(dp1990
g9
g24
sg12
VSF
p1991
ssasg26
S'Location_in_time'
p1992
sa(dp1993
g2
(lp1994
(dp1995
g5
VNP_CNJ
p1996
sg7
S'Creator'
p1997
sg9
(dp1998
g9
V\uc640
p1999
sg12
VJC
p2000
ssa(dp2001
g5
VNP_CNJ
p2002
sg7
S'Creator'
p2003
sg9
(dp2004
g9
V\uacfc
p2005
sg12
VJC
p2006
ssa(dp2007
g5
VNP_SBJ
p2008
sg7
S'Creator'
p2009
sg9
(dp2010
g9
V\uc774
p2011
sg12
VJKS
p2012
ssa(dp2013
g5
VNP_OBJ
p2014
sg7
S'Created_entity'
p2015
sg9
(dp2016
g9
V\uc744
p2017
sg12
VJKO
p2018
ssa(dp2019
g5
VNP_SBJ
p2020
sg7
S'Time'
p2021
sg9
(dp2022
g9
V\ub294
p2023
sg12
VJX
p2024
ssasg26
S'Creating'
p2025
sa(dp2026
g2
(lp2027
(dp2028
g5
VVP_MOD
p2029
sg7
S'Type'
p2030
sg60
VARG1
p2031
sg9
(dp2032
g9
V\ub294
p2033
sg12
VETM
p2034
ssa(dp2035
g5
VVNP
p2036
sg7
S'Name'
p2037
sg9
(dp2038
g9
g24
sg12
VSF
p2039
ssasg26
S'Artifact'
p2040
sa(dp2041
g2
(lp2042
(dp2043
g5
VNP_OBJ
p2044
sg7
S'Entity'
p2045
sg9
(dp2046
g9
V\uc744
p2047
sg12
VJKO
p2048
ssa(dp2049
g5
VNP_SBJ
p2050
sg7
S'Name'
p2051
sg9
(dp2052
g9
V\ub294
p2053
sg12
VJX
p2054
ssasg26
S'Referring_by_name'
p2055
sa(dp2056
g2
(lp2057
(dp2058
g5
VVP_MOD
p2059
sg7
S'Relative_location'
p2060
sg60
VARG1
p2061
sg9
(dp2062
g9
V\u3134
p2063
sg12
VETM
p2064
ssa(dp2065
g5
VNP_MOD
p2066
sg7
S'Container_possessor'
p2067
sg9
(dp2068
g9
V\uc758
p2069
sg12
VJKG
p2070
ssa(dp2071
g5
VNP
p2072
sg7
S'Descriptor'
p2073
sg9
(dp2074
sa(dp2075
g5
VVNP
p2076
sg7
S'Name'
p2077
sg9
(dp2078
g9
g24
sg12
VSF
p2079
ssasg26
S'Locale'
p2080
sa(dp2081
g2
(lp2082
(dp2083
g5
VNP_AJT
p2084
sg7
S'Location'
p2085
sg9
(dp2086
g9
V\uc5d0
p2087
sg12
VJKB
p2088
ssa(dp2089
g5
VNP_SBJ
p2090
sg7
S'Theme'
p2091
sg9
(dp2092
g9
V\ub294
p2093
sg12
VJX
p2094
ssasg26
S'Being_located'
p2095
sa(dp2096
g2
(lp2097
(dp2098
g5
VNP_MOD
p2099
sg7
S'Container_possessor'
p2100
sg9
(dp2101
g9
V\uc758
p2102
sg12
VJKG
p2103
ssa(dp2104
g5
VVNP
p2105
sg7
S'Name'
p2106
sg9
(dp2107
g9
g24
sg12
VSF
p2108
ssasg26
S'Locale'
p2109
sa(dp2110
g2
(lp2111
(dp2112
g5
VNP
p2113
sg7
S'Context_of_acquaintance'
p2114
sg9
(dp2115
sa(dp2116
g5
VVNP
p2117
sg7
S'Person'
p2118
sg9
(dp2119
g9
g24
sg12
VSF
p2120
ssasg26
S'People'
p2121
sa(dp2122
g2
(lp2123
(dp2124
g5
VNP_MOD
p2125
sg7
S'Governed'
p2126
sg9
(dp2127
g9
V\uc758
p2128
sg12
VJKG
p2129
ssa(dp2130
g5
VNP
p2131
sg7
S'Type'
p2132
sg9
(dp2133
sa(dp2134
g5
VVNP
p2135
sg7
S'Leader'
p2136
sg9
(dp2137
g9
g24
sg12
VSF
p2138
ssasg26
S'Leadership'
p2139
sa(dp2140
g2
(lp2141
(dp2142
g5
VVP_MOD
p2143
sg7
S'Purpose'
p2144
sg60
VARG0
p2145
sg9
(dp2146
g9
V\ub294
p2147
sg12
VETM
p2148
ssa(dp2149
g5
VVNP
p2150
sg7
S'Name'
p2151
sg9
(dp2152
g9
g24
sg12
VSF
p2153
ssasg26
S'Organization'
p2154
sa(dp2155
g2
(lp2156
(dp2157
g5
VVP_MOD
p2158
sg7
S'Ethnicity'
p2159
sg60
VARG0
p2160
sg9
(dp2161
g9
V\ub294
p2162
sg12
VETM
p2163
ssa(dp2164
g5
VNP_MOD
p2165
sg7
S'Persistent_characteristic'
p2166
sg9
(dp2167
g9
V\uc758
p2168
sg12
VJKG
p2169
ssa(dp2170
g5
VVNP
p2171
sg7
S'Person'
p2172
sg9
(dp2173
g9
g24
sg12
VSF
p2174
ssasg26
S'People'
p2175
sa(dp2176
g2
(lp2177
(dp2178
g5
VNP_SBJ
p2179
sg7
S'Name'
p2180
sg9
(dp2181
g9
V\ub294
p2182
sg12
VJX
p2183
ssa(dp2184
g5
VNP_MOD
p2185
sg7
S'Type'
p2186
sg9
(dp2187
g9
V\uc758
p2188
sg12
VJKG
p2189
ssa(dp2190
g5
VVNP
p2191
sg7
S'Type'
p2192
sg9
(dp2193
g9
g24
sg12
VSF
p2194
ssasg26
S'Artifact'
p2195
sa(dp2196
g2
(lp2197
(dp2198
g5
VNP_SBJ
p2199
sg7
S'Item'
p2200
sg9
(dp2201
g9
V\ub294
p2202
sg12
VJX
p2203
ssa(dp2204
g5
VNP
p2205
sg7
S'Type'
p2206
sg9
(dp2207
sasg26
S'Ordinal_number'
p2208
sa.