(lp0
(dp1
S'frame'
p2
S'Event'
p3
sS'target'
p4
V\ud574\uc804
p5
sa(dp6
g2
S'Leadership'
p7
sg4
V\uc9c0\ud718\ud558
p8
sa(dp9
g2
S'Location_in_time'
p10
sg4
V\ub0a0\uc9dc
p11
sa(dp12
g2
S'Event'
p13
sg4
V\ubc1c\uc0dd\ud558
p14
sa(dp15
g2
S'Artifact'
p16
sg4
V\uadf9\uc7a5
p17
sa(dp18
g2
S'Creating'
p19
sg4
V\uc124\ub9bd\ud558
p20
sa(dp21
g2
S'Artifact'
p22
sg4
V\ud615\ud0dc
p23
sa(dp24
g2
S'Referring_by_name'
p25
sg4
V\uac00\ub9ac\ud0a4
p26
sa(dp27
g2
S'Artifact'
p28
sg4
V\uac83
p29
sa(dp30
g2
S'Artifact'
p31
sg4
V\uc774\ub860
p32
sa(dp33
g2
S'Artifact'
p34
sg4
V\uc218\uc870\uad8c
p35
sa(dp36
g2
S'Organization'
p37
sg4
V\ud68c\uc0ac
p38
sa(dp39
g2
S'Locale'
p40
sg4
V\uc9c0\ud615
p41
sa(dp42
g2
S'Artifact'
p43
sg4
V\uacbd\uc8fc
p44
sa(dp45
g2
S'Being_located'
p46
sg4
V\uc704\uce58\ud558
p47
sa(dp48
g2
S'Artifact'
p49
sg4
V\uc815\ucc45
p50
sa(dp51
g2
S'Creating'
p52
sg4
V\uc2dc\ud589\ud558
p53
sa(dp54
g2
S'Locale'
p55
sg4
V\uce35
p56
sa(dp57
g2
S'Organization'
p58
sg4
V\ub2e8\uccb4
p59
sa(dp60
g2
S'Creating'
p61
sg4
V\uc870\uc9c1\ud558
p62
sa(dp63
g2
S'Organization'
p64
sg4
V\ubc1c\ub808\ub2e8
p65
sa(dp66
g2
S'Cause_change'
p67
sg4
V\ub3c5\ub9bd\ud558
p68
sa(dp69
g2
S'Organization'
p70
sg4
V\uc911\uc559\ud589\uc815\uae30\uad00
p71
sa(dp72
g2
S'Artifact'
p73
sg4
V\uac83
p74
sa(dp75
g2
S'Artifact'
p76
sg4
V\ud654\ud3d0
p77
sa(dp78
g2
S'Using'
p79
sg4
V\uc0ac\uc6a9\ub418
p80
sa(dp81
g2
S'First_experience'
p82
sg4
V\ucd5c\ucd08
p83
sa(dp84
g2
S'Artifact'
p85
sg4
V\ubd84\uc57c
p86
sa(dp87
g2
S'Artifact'
p88
sg4
V\uc5ed\uc124
p89
sa(dp90
g2
S'Creating'
p91
sg4
V\ubc1c\uc0dd\ud558
p92
sa(dp93
g2
S'Artifact'
p94
sg4
V\uc138\ub300
p95
sa(dp96
g2
S'Being_born'
p97
sg4
V\ucd9c\uc0dd\ud558
p98
sa(dp99
g2
S'Artifact'
p100
sg4
V\uc678\ub798\uc5b4
p101
sa(dp102
g2
S'Referring_by_name'
p103
sg4
V\uc758\ubbf8\ud558
p104
sa(dp105
g2
S'Artifact'
p106
sg4
V\uac83
p107
sa(dp108
g2
S'Artifact'
p109
sg4
V\uc81c\ub3c4
p110
sa(dp111
g2
S'People'
p112
sg4
V\uc791\uac00
p113
sa(dp114
g2
S'Creating'
p115
sg4
V\uc4f0
p116
sa(dp117
g2
S'People'
p118
sg4
V\uc0ac\ub78c
p119
sa(dp120
g2
S'Arriving'
p121
sg4
V\ub3c4\ub2ec\ud558
p122
sa(dp123
g2
S'First_experience'
p124
sg4
V\ucd5c\ucd08
p125
sa(dp126
g2
S'People'
p127
sg4
V\ub300\ud1b5\ub839
p128
sa(dp129
g2
S'Leadership'
p130
sg4
V\ub300\ud1b5\ub839
p131
sa(dp132
g2
S'People'
p133
sg4
V\ub300\ud1b5\ub839
p134
sa(dp135
g2
S'Leadership'
p136
sg4
V\ub300\ud1b5\ub839
p137
sa(dp138
g2
S'Artifact'
p139
sg4
V\uc18c\uc124
p140
sa(dp141
g2
S'Topic'
p142
sg4
V\uadf8\ub9ac
p143
sa(dp144
g2
S'Organization'
p145
sg4
V\uc5f0\uad6c\uc18c
p146
sa(dp147
g2
S'Organization'
p148
sg4
V\uae30\uad00
p149
sa(dp150
g2
S'Organization'
p151
sg4
V\uae30\uad6c
p152
sa(dp153
g2
S'Organization'
p154
sg4
V\uae30\uad6c
p155
sa(dp156
g2
S'Creating'
p157
sg4
V\uc124\ub9bd\ud558
p158
sa(dp159
g2
S'Organization'
p160
sg4
V\uae30\uad00
p161
sa(dp162
g2
S'Organization'
p163
sg4
V\uc5f0\uad6c\uc18c
p164
sa(dp165
g2
S'Organization'
p166
sg4
V\uae30\uad6c
p167
sa(dp168
g2
S'Creating'
p169
sg4
V\uc124\ub9bd\ud558
p170
sa(dp171
g2
S'Organization'
p172
sg4
V\uc13c\ud130
p173
sa(dp174
g2
S'Organization'
p175
sg4
V\uae30\uad00
p176
sa(dp177
g2
S'Organization'
p178
sg4
V\uae30\uad00
p179
sa(dp180
g2
S'Organization'
p181
sg4
V\ub2e8\uccb4
p182
sa(dp183
g2
S'Organization'
p184
sg4
V\ub2e8\uccb4
p185
sa(dp186
g2
S'Creating'
p187
sg4
V\uc870\uc9c1\ub418
p188
sa(dp189
g2
S'Artifact'
p190
sg4
V\uacc4\uae30
p191
sa(dp192
g2
S'Cause_change'
p193
sg4
V\ub098\ub258\uac8c
p194
sa(dp195
g2
S'Artifact'
p196
sg4
V\uc18c\uc124\uc9d1
p197
sa(dp198
g2
S'Location_in_time'
p199
sg4
V\ub144\ub3c4
p200
sa(dp201
g2
S'Event'
p202
sg4
V\ubc1c\uc0dd\ud558
p203
sa(dp204
g2
S'Artifact'
p205
sg4
V\ud5cc\ubc95
p206
sa(dp207
g2
S'Creating'
p208
sg4
V\uc81c\uc815\ud558\uc5c8\uc73c\uba70
p209
sa(dp210
g2
S'Referring_by_name'
p211
sg4
V\ubd88\ub9ac
p212
sa(dp213
g2
S'Organization'
p214
sg4
V\ub2e8\uccb4
p215
sa(dp216
g2
S'Locale'
p217
sg4
V\ub3c4\uc2dc
p218
sa(dp219
g2
S'Event'
p220
sg4
V\uac1c\ucd5c\ub418
p221
sa(dp222
g2
S'Organization'
p223
sg4
V\uc7ac\ub2e8\ubc95\uc778
p224
sa(dp225
g2
S'Artifact'
p226
sg4
V\ud1b5\ud654
p227
sa(dp228
g2
S'Using'
p229
sg4
V\ud1b5\uc6a9\ub418
p230
sa(dp231
g2
S'Artifact'
p232
sg4
V\ud3b8\uc9c0
p233
sa(dp234
g2
S'Cause_motion'
p235
sg4
V\ubcf4\ub0b4
p236
sa(dp237
g2
S'Location_in_time'
p238
sg4
V\ub144\ub3c4
p239
sa(dp240
g2
S'Arriving'
p241
sg4
V\ucc38\uc11d\ud558
p242
sa(dp243
g2
S'People'
p244
sg4
V\uc0ac\ub78c
p245
sa(dp246
g2
S'Creating'
p247
sg4
V\ucc3d\ub9bd\ud558
p248
sa(dp249
g2
S'Artifact'
p250
sg4
V\ud604\uc0c1
p251
sa(dp252
g2
S'People'
p253
sg4
V\ud669\uc81c
p254
sa(dp255
g2
S'Leadership'
p256
sg4
V\ud669\uc81c
p257
sa(dp258
g2
S'Organization'
p259
sg4
V\ubbfc\uc871\uad50\uc721\uae30\uad00
p260
sa(dp261
g2
S'Creating'
p262
sg4
V\uc124\ub9bd\ub418
p263
sa(dp264
g2
S'First_experience'
p265
sg4
V\ucd5c\ucd08
p266
sa(dp267
g2
S'Artifact'
p268
sg4
V\uc774\ub860
p269
sa(dp270
g2
S'People'
p271
sg4
V\uacfc\ud559\uc790
p272
sa(dp273
g2
S'Creating'
p274
sg4
V\uc8fc\uc7a5\ud558
p275
sa(dp276
g2
S'Artifact'
p277
sg4
V\uc18c\uc124
p278
sa(dp279
g2
S'People'
p280
sg4
V\uc791\uac00
p281
sa(dp282
g2
S'Creating'
p283
sg4
V\uc4f0
p284
sa(dp285
g2
S'Locale'
p286
sg4
V\ucd5c\uace0\ubd09
p287
sa(dp288
g2
S'Locale'
p289
sg4
V\uc9c0\uc5ed
p290
sa(dp291
g2
S'Referring_by_name'
p292
sg4
V\uc758\ubbf8\ud558
p293
sa(dp294
g2
S'Locale'
p295
sg4
V\uc218\ub3c4
p296
sa(dp297
g2
S'Organization'
p298
sg4
V\uc5f0\ud569\uccb4
p299
sa(dp300
g2
S'Cause_change'
p301
sg4
V\ub3c5\ub9bd\ud558
p302
sa(dp303
g2
S'Organization'
p304
sg4
V\uc591\uc131\uae30\uad00
p305
sa(dp306
g2
S'Creating'
p307
sg4
V\uc124\ub9bd\ub418
p308
sa(dp309
g2
S'Organization'
p310
sg4
V\uae30\uad00
p311
sa(dp312
g2
S'Artifact'
p313
sg4
V\uc655\ub989
p314
sa(dp315
g2
S'Organization'
p316
sg4
V\uae30\uad00
p317
sa(dp318
g2
S'Membership'
p319
sg4
V\uc18c\uc18d\ub418
p320
sa(dp321
g2
S'Location_in_time'
p322
sg4
V\ub144\ub3c4
p323
sa(dp324
g2
S'Creating'
p325
sg4
V\ucc3d\uc5c5\ud558
p326
sa(dp327
g2
S'Artifact'
p328
sg4
V\uc6a9\uc5b4
p329
sa(dp330
g2
S'Referring_by_name'
p331
sg4
V\uc758\ubbf8\ud558
p332
sa(dp333
g2
S'Locale'
p334
sg4
V\ub3c4\uc2dc
p335
sa(dp336
g2
S'Being_located'
p337
sg4
V\uc704\uce58\ud558
p338
sa(dp339
g2
S'Locale'
p340
sg4
V\uc218\ub3c4
p341
sa(dp342
g2
S'People'
p343
sg4
V\uc655
p344
sa(dp345
g2
S'Leadership'
p346
sg4
V\uc655
p347
sa(dp348
g2
S'Organization'
p349
sg4
V\ubc95\uc6d0
p350
sa(dp351
g2
S'People'
p352
sg4
V\uc5ec\uc2e0
p353
sa(dp354
g2
S'Artifact'
p355
sg4
V\uad6d\ubcf4
p356
sa(dp357
g2
S'Ordinal_number'
p358
sg4
V\ud638
p359
sa.